target datalayout = "e-m:e-p270:32:32-p271:32:32-p272:64:64-i64:64-i128:128-f80:128-n8:16:32:64-S128"
target triple = "x86_64-pc-linux-gnu"

@.str.1 = private unnamed_addr constant [29 x i8] c"No list was given to fill in\00", align 1

; Function Attrs: nounwind uwtable
define dso_local i32 @slurm_addto_id_char_list(ptr noundef %0, ptr noundef %1, i1 noundef zeroext %2) #0 {
  %4 = alloca i32, align 4
  %5 = alloca ptr, align 8
  %6 = alloca ptr, align 8
  %7 = alloca i8, align 1
  store ptr %0, ptr %5, align 8
  store ptr %1, ptr %6, align 8
  %8 = zext i1 %2 to i8
  store i8 %8, ptr %7, align 1
  %9 = load ptr, ptr %5, align 8
  %10 = icmp ne ptr %9, null
  br i1 %10, label %13, label %11

11:                                               ; preds = %3
  %12 = call i32 (ptr, ...) @error(ptr noundef @.str.1)
  store i32 0, ptr %4, align 4
  br label %17

13:                                               ; preds = %3
  %14 = load ptr, ptr %5, align 8
  %15 = load ptr, ptr %6, align 8
  %16 = call i32 @slurm_parse_char_list(ptr noundef %14, ptr noundef %15, ptr noundef %7, ptr noundef @_slurm_addto_id_char_list_internal)
  store i32 %16, ptr %4, align 4
  br label %17

17:                                               ; preds = %13, %11
  %18 = load i32, ptr %4, align 4
  ret i32 %18
}