; Function Attrs: nounwind uwtable
define dso_local i32 @slurm_addto_id_char_list(ptr noundef %0, ptr noundef %1, i1 noundef zeroext %2) local_unnamed_addr #1 {
  %4 = alloca i8, align 1
  %5 = zext i1 %2 to i8
  store i8 %5, ptr %4, align 1
  %.not = icmp eq ptr %0, null
  br i1 %.not, label %6, label %8

6:                                                ; preds = %3
  %7 = tail call i32 (ptr, ...) @error(ptr noundef nonnull @.str.1) #24
  br label %10

8:                                                ; preds = %3
  %9 = call i32 @slurm_parse_char_list(ptr noundef nonnull %0, ptr noundef %1, ptr noundef nonnull %4, ptr noundef nonnull @_slurm_addto_id_char_list_internal)
  br label %10

10:                                               ; preds = %8, %6
  %.0 = phi i32 [ %9, %8 ], [ 0, %6 ]
  ret i32 %.0
}